; Function Attrs: mustprogress uwtable
define void @_ZNK32pxrInternal_v0_24__pxrReserved__15TfDiagnosticMgr11ErrorHelper11PostQuietlyEPKcz(ptr noundef nonnull align 8 dereferenceable(64) %0, ptr noundef %1, ...) local_unnamed_addr #0 align 2 personality ptr @__gxx_personality_v0 {
  %3 = alloca [1 x %struct.__va_list_tag], align 16
  %4 = alloca %"class.std::__cxx11::basic_string", align 8
  %5 = alloca %"class.std::any", align 8
  call void @llvm.va_start.p0(ptr nonnull %3)
  call void @_ZN32pxrInternal_v0_24__pxrReserved__15TfVStringPrintfB5cxx11EPKcP13__va_list_tag(ptr dead_on_unwind nonnull writable sret(%"class.std::__cxx11::basic_string") align 8 %4, ptr noundef %1, ptr noundef nonnull %3)
  call void @llvm.memset.p0.i64(ptr noundef nonnull align 8 dereferenceable(16) %5, i8 0, i64 16, i1 false)
  invoke void @_ZNK32pxrInternal_v0_24__pxrReserved__15TfDiagnosticMgr11ErrorHelper11PostQuietlyERKNSt7__cxx1112basic_stringIcSt11char_traitsIcESaIcEEESt3any(ptr noundef nonnull align 8 dereferenceable(64) %0, ptr noundef nonnull align 8 dereferenceable(32) %4, ptr noundef nonnull %5)
          to label %6 unwind label %13

6:                                                ; preds = %2
  %7 = load ptr, ptr %5, align 8
  %.not.i.i = icmp eq ptr %7, null
  br i1 %.not.i.i, label %_ZNSt3anyD2Ev.exit, label %8

8:                                                ; preds = %6
  invoke void %7(i32 noundef 3, ptr noundef nonnull align 8 dereferenceable(16) %5, ptr noundef null)
          to label %9 unwind label %10

9:                                                ; preds = %8
  store ptr null, ptr %5, align 8
  br label %_ZNSt3anyD2Ev.exit

10:                                               ; preds = %8
  %11 = landingpad { ptr, i32 }
          catch ptr null
  %12 = extractvalue { ptr, i32 } %11, 0
  call void @__clang_call_terminate(ptr %12) #30
  unreachable

_ZNSt3anyD2Ev.exit:                               ; preds = %6, %9
  call void @_ZNSt7__cxx1112basic_stringIcSt11char_traitsIcESaIcEED1Ev(ptr noundef nonnull align 8 dereferenceable(32) %4) #23
  call void @llvm.va_end.p0(ptr nonnull %3)
  ret void

13:                                               ; preds = %2
  %14 = landingpad { ptr, i32 }
          cleanup
  call void @_ZNSt3anyD2Ev(ptr noundef nonnull align 8 dereferenceable(16) %5) #23
  call void @_ZNSt7__cxx1112basic_stringIcSt11char_traitsIcESaIcEED1Ev(ptr noundef nonnull align 8 dereferenceable(32) %4) #23
  resume { ptr, i32 } %14
}